target datalayout = "e-m:e-p270:32:32-p271:32:32-p272:64:64-i64:64-i128:128-f80:128-n8:16:32:64-S128"
target triple = "x86_64-pc-linux-gnu"

; Function Attrs: mustprogress nounwind uwtable
define noundef ptr @_Z8ImStrbolPKcS0_(ptr noundef %0, ptr noundef %1) #1 {
  %3 = alloca ptr, align 8
  %4 = alloca ptr, align 8
  store ptr %0, ptr %3, align 8, !tbaa !261
  store ptr %1, ptr %4, align 8, !tbaa !261
  br label %5

5:                                                ; preds = %17, %2
  %6 = load ptr, ptr %3, align 8, !tbaa !261
  %7 = load ptr, ptr %4, align 8, !tbaa !261
  %8 = icmp ugt ptr %6, %7
  br i1 %8, label %9, label %15

9:                                                ; preds = %5
  %10 = load ptr, ptr %3, align 8, !tbaa !261
  %11 = getelementptr inbounds i8, ptr %10, i64 -1
  %12 = load i8, ptr %11, align 1, !tbaa !252
  %13 = sext i8 %12 to i32
  %14 = icmp ne i32 %13, 10
  br label %15

15:                                               ; preds = %9, %5
  %16 = phi i1 [ false, %5 ], [ %14, %9 ]
  br i1 %16, label %17, label %20

17:                                               ; preds = %15
  %18 = load ptr, ptr %3, align 8, !tbaa !261
  %19 = getelementptr inbounds i8, ptr %18, i32 -1
  store ptr %19, ptr %3, align 8, !tbaa !261
  br label %5, !llvm.loop !306

20:                                               ; preds = %15
  %21 = load ptr, ptr %3, align 8, !tbaa !261
  ret ptr %21
}