; Function Attrs: mustprogress nofree norecurse nosync nounwind willreturn memory(argmem: read) uwtable
define noundef ptr @_Z8ImStrbolPKcS0_(ptr noundef readonly %0, ptr noundef readnone %1) local_unnamed_addr #17 {
  br label %3

3:                                                ; preds = %5, %2
  %.0 = phi ptr [ %0, %2 ], [ %6, %5 ]
  %4 = icmp ugt ptr %.0, %1
  br i1 %4, label %5, label %.critedge

5:                                                ; preds = %3
  %6 = getelementptr inbounds i8, ptr %.0, i64 -1
  %7 = load i8, ptr %6, align 1, !tbaa !211
  %.not = icmp eq i8 %7, 10
  br i1 %.not, label %.critedge, label %3, !llvm.loop !255

.critedge:                                        ; preds = %3, %5
  ret ptr %.0
}